target datalayout = "e-m:e-p270:32:32-p271:32:32-p272:64:64-i64:64-i128:128-f80:128-n8:16:32:64-S128"
target triple = "x86_64-pc-linux-gnu"

%struct._generic_SUNMatrix = type { ptr, ptr, ptr }
%struct._SUNMatrixContent_Sparse = type { i64, i64, i64, i64, ptr, i32, ptr, ptr, ptr, ptr, ptr, ptr }
%struct._SUNMatrixContent_Dense = type { i64, i64, ptr, i64, ptr }

; Function Attrs: nounwind uwtable
define ptr @SUNSparseFromDenseMatrix(ptr noundef %0, double noundef %1, i32 noundef %2) #0 {
  %4 = alloca ptr, align 8
  %5 = alloca double, align 8
  %6 = alloca i32, align 4
  %7 = alloca ptr, align 8
  %8 = alloca i64, align 8
  %9 = alloca i64, align 8
  %10 = alloca i64, align 8
  %11 = alloca i64, align 8
  %12 = alloca i64, align 8
  %13 = alloca ptr, align 8
  store ptr %0, ptr %4, align 8, !tbaa !12
  store double %1, ptr %5, align 8, !tbaa !47
  store i32 %2, ptr %6, align 4, !tbaa !7
  call void @llvm.lifetime.start.p0(i64 8, ptr %7) #8
  %14 = load ptr, ptr %4, align 8, !tbaa !12
  %15 = getelementptr inbounds nuw %struct._generic_SUNMatrix, ptr %14, i32 0, i32 2
  %16 = load ptr, ptr %15, align 8, !tbaa !46
  store ptr %16, ptr %7, align 8, !tbaa !9
  call void @llvm.lifetime.start.p0(i64 8, ptr %8) #8
  call void @llvm.lifetime.start.p0(i64 8, ptr %9) #8
  call void @llvm.lifetime.start.p0(i64 8, ptr %10) #8
  call void @llvm.lifetime.start.p0(i64 8, ptr %11) #8
  call void @llvm.lifetime.start.p0(i64 8, ptr %12) #8
  call void @llvm.lifetime.start.p0(i64 8, ptr %13) #8
  %17 = load ptr, ptr %4, align 8, !tbaa !12
  %18 = getelementptr inbounds nuw %struct._generic_SUNMatrix, ptr %17, i32 0, i32 0
  %19 = load ptr, ptr %18, align 8, !tbaa !29
  %20 = getelementptr inbounds nuw %struct._SUNMatrixContent_Dense, ptr %19, i32 0, i32 0
  %21 = load i64, ptr %20, align 8, !tbaa !53
  store i64 %21, ptr %11, align 8, !tbaa !3
  %22 = load ptr, ptr %4, align 8, !tbaa !12
  %23 = getelementptr inbounds nuw %struct._generic_SUNMatrix, ptr %22, i32 0, i32 0
  %24 = load ptr, ptr %23, align 8, !tbaa !29
  %25 = getelementptr inbounds nuw %struct._SUNMatrixContent_Dense, ptr %24, i32 0, i32 1
  %26 = load i64, ptr %25, align 8, !tbaa !56
  store i64 %26, ptr %12, align 8, !tbaa !3
  store i64 0, ptr %10, align 8, !tbaa !3
  store i64 0, ptr %9, align 8, !tbaa !3
  br label %27

27:                                               ; preds = %59, %3
  %28 = load i64, ptr %9, align 8, !tbaa !3
  %29 = load i64, ptr %12, align 8, !tbaa !3
  %30 = icmp slt i64 %28, %29
  br i1 %30, label %31, label %62

31:                                               ; preds = %27
  store i64 0, ptr %8, align 8, !tbaa !3
  br label %32

32:                                               ; preds = %55, %31
  %33 = load i64, ptr %8, align 8, !tbaa !3
  %34 = load i64, ptr %11, align 8, !tbaa !3
  %35 = icmp slt i64 %33, %34
  br i1 %35, label %36, label %58

36:                                               ; preds = %32
  %37 = load ptr, ptr %4, align 8, !tbaa !12
  %38 = getelementptr inbounds nuw %struct._generic_SUNMatrix, ptr %37, i32 0, i32 0
  %39 = load ptr, ptr %38, align 8, !tbaa !29
  %40 = getelementptr inbounds nuw %struct._SUNMatrixContent_Dense, ptr %39, i32 0, i32 4
  %41 = load ptr, ptr %40, align 8, !tbaa !57
  %42 = load i64, ptr %9, align 8, !tbaa !3
  %43 = getelementptr inbounds ptr, ptr %41, i64 %42
  %44 = load ptr, ptr %43, align 8, !tbaa !50
  %45 = load i64, ptr %8, align 8, !tbaa !3
  %46 = getelementptr inbounds double, ptr %44, i64 %45
  %47 = load double, ptr %46, align 8, !tbaa !47
  %48 = call double @llvm.fabs.f64(double %47)
  %49 = load double, ptr %5, align 8, !tbaa !47
  %50 = fcmp ogt double %48, %49
  %51 = zext i1 %50 to i32
  %52 = sext i32 %51 to i64
  %53 = load i64, ptr %10, align 8, !tbaa !3
  %54 = add nsw i64 %53, %52
  store i64 %54, ptr %10, align 8, !tbaa !3
  br label %55

55:                                               ; preds = %36
  %56 = load i64, ptr %8, align 8, !tbaa !3
  %57 = add nsw i64 %56, 1
  store i64 %57, ptr %8, align 8, !tbaa !3
  br label %32

58:                                               ; preds = %32
  br label %59

59:                                               ; preds = %58
  %60 = load i64, ptr %9, align 8, !tbaa !3
  %61 = add nsw i64 %60, 1
  store i64 %61, ptr %9, align 8, !tbaa !3
  br label %27

62:                                               ; preds = %27
  store ptr null, ptr %13, align 8, !tbaa !12
  %63 = load i64, ptr %11, align 8, !tbaa !3
  %64 = load i64, ptr %12, align 8, !tbaa !3
  %65 = load i64, ptr %10, align 8, !tbaa !3
  %66 = load i32, ptr %6, align 4, !tbaa !7
  %67 = load ptr, ptr %4, align 8, !tbaa !12
  %68 = getelementptr inbounds nuw %struct._generic_SUNMatrix, ptr %67, i32 0, i32 2
  %69 = load ptr, ptr %68, align 8, !tbaa !46
  %70 = call ptr @SUNSparseMatrix(i64 noundef %63, i64 noundef %64, i64 noundef %65, i32 noundef %66, ptr noundef %69)
  store ptr %70, ptr %13, align 8, !tbaa !12
  store i64 0, ptr %10, align 8, !tbaa !3
  %71 = load i32, ptr %6, align 4, !tbaa !7
  %72 = icmp eq i32 %71, 0
  br i1 %72, label %73, label %151

73:                                               ; preds = %62
  store i64 0, ptr %9, align 8, !tbaa !3
  br label %74

74:                                               ; preds = %139, %73
  %75 = load i64, ptr %9, align 8, !tbaa !3
  %76 = load i64, ptr %12, align 8, !tbaa !3
  %77 = icmp slt i64 %75, %76
  br i1 %77, label %78, label %142

78:                                               ; preds = %74
  %79 = load i64, ptr %10, align 8, !tbaa !3
  %80 = load ptr, ptr %13, align 8, !tbaa !12
  %81 = getelementptr inbounds nuw %struct._generic_SUNMatrix, ptr %80, i32 0, i32 0
  %82 = load ptr, ptr %81, align 8, !tbaa !29
  %83 = getelementptr inbounds nuw %struct._SUNMatrixContent_Sparse, ptr %82, i32 0, i32 7
  %84 = load ptr, ptr %83, align 8, !tbaa !45
  %85 = load i64, ptr %9, align 8, !tbaa !3
  %86 = getelementptr inbounds i64, ptr %84, i64 %85
  store i64 %79, ptr %86, align 8, !tbaa !3
  store i64 0, ptr %8, align 8, !tbaa !3
  br label %87

87:                                               ; preds = %135, %78
  %88 = load i64, ptr %8, align 8, !tbaa !3
  %89 = load i64, ptr %11, align 8, !tbaa !3
  %90 = icmp slt i64 %88, %89
  br i1 %90, label %91, label %138

91:                                               ; preds = %87
  %92 = load ptr, ptr %4, align 8, !tbaa !12
  %93 = getelementptr inbounds nuw %struct._generic_SUNMatrix, ptr %92, i32 0, i32 0
  %94 = load ptr, ptr %93, align 8, !tbaa !29
  %95 = getelementptr inbounds nuw %struct._SUNMatrixContent_Dense, ptr %94, i32 0, i32 4
  %96 = load ptr, ptr %95, align 8, !tbaa !57
  %97 = load i64, ptr %9, align 8, !tbaa !3
  %98 = getelementptr inbounds ptr, ptr %96, i64 %97
  %99 = load ptr, ptr %98, align 8, !tbaa !50
  %100 = load i64, ptr %8, align 8, !tbaa !3
  %101 = getelementptr inbounds double, ptr %99, i64 %100
  %102 = load double, ptr %101, align 8, !tbaa !47
  %103 = call double @llvm.fabs.f64(double %102)
  %104 = load double, ptr %5, align 8, !tbaa !47
  %105 = fcmp ogt double %103, %104
  br i1 %105, label %106, label %134

106:                                              ; preds = %91
  %107 = load i64, ptr %8, align 8, !tbaa !3
  %108 = load ptr, ptr %13, align 8, !tbaa !12
  %109 = getelementptr inbounds nuw %struct._generic_SUNMatrix, ptr %108, i32 0, i32 0
  %110 = load ptr, ptr %109, align 8, !tbaa !29
  %111 = getelementptr inbounds nuw %struct._SUNMatrixContent_Sparse, ptr %110, i32 0, i32 6
  %112 = load ptr, ptr %111, align 8, !tbaa !44
  %113 = load i64, ptr %10, align 8, !tbaa !3
  %114 = getelementptr inbounds i64, ptr %112, i64 %113
  store i64 %107, ptr %114, align 8, !tbaa !3
  %115 = load ptr, ptr %4, align 8, !tbaa !12
  %116 = getelementptr inbounds nuw %struct._generic_SUNMatrix, ptr %115, i32 0, i32 0
  %117 = load ptr, ptr %116, align 8, !tbaa !29
  %118 = getelementptr inbounds nuw %struct._SUNMatrixContent_Dense, ptr %117, i32 0, i32 4
  %119 = load ptr, ptr %118, align 8, !tbaa !57
  %120 = load i64, ptr %9, align 8, !tbaa !3
  %121 = getelementptr inbounds ptr, ptr %119, i64 %120
  %122 = load ptr, ptr %121, align 8, !tbaa !50
  %123 = load i64, ptr %8, align 8, !tbaa !3
  %124 = getelementptr inbounds double, ptr %122, i64 %123
  %125 = load double, ptr %124, align 8, !tbaa !47
  %126 = load ptr, ptr %13, align 8, !tbaa !12
  %127 = getelementptr inbounds nuw %struct._generic_SUNMatrix, ptr %126, i32 0, i32 0
  %128 = load ptr, ptr %127, align 8, !tbaa !29
  %129 = getelementptr inbounds nuw %struct._SUNMatrixContent_Sparse, ptr %128, i32 0, i32 4
  %130 = load ptr, ptr %129, align 8, !tbaa !43
  %131 = load i64, ptr %10, align 8, !tbaa !3
  %132 = add nsw i64 %131, 1
  store i64 %132, ptr %10, align 8, !tbaa !3
  %133 = getelementptr inbounds double, ptr %130, i64 %131
  store double %125, ptr %133, align 8, !tbaa !47
  br label %134

134:                                              ; preds = %106, %91
  br label %135

135:                                              ; preds = %134
  %136 = load i64, ptr %8, align 8, !tbaa !3
  %137 = add nsw i64 %136, 1
  store i64 %137, ptr %8, align 8, !tbaa !3
  br label %87

138:                                              ; preds = %87
  br label %139

139:                                              ; preds = %138
  %140 = load i64, ptr %9, align 8, !tbaa !3
  %141 = add nsw i64 %140, 1
  store i64 %141, ptr %9, align 8, !tbaa !3
  br label %74

142:                                              ; preds = %74
  %143 = load i64, ptr %10, align 8, !tbaa !3
  %144 = load ptr, ptr %13, align 8, !tbaa !12
  %145 = getelementptr inbounds nuw %struct._generic_SUNMatrix, ptr %144, i32 0, i32 0
  %146 = load ptr, ptr %145, align 8, !tbaa !29
  %147 = getelementptr inbounds nuw %struct._SUNMatrixContent_Sparse, ptr %146, i32 0, i32 7
  %148 = load ptr, ptr %147, align 8, !tbaa !45
  %149 = load i64, ptr %12, align 8, !tbaa !3
  %150 = getelementptr inbounds i64, ptr %148, i64 %149
  store i64 %143, ptr %150, align 8, !tbaa !3
  br label %229

151:                                              ; preds = %62
  store i64 0, ptr %8, align 8, !tbaa !3
  br label %152

152:                                              ; preds = %217, %151
  %153 = load i64, ptr %8, align 8, !tbaa !3
  %154 = load i64, ptr %11, align 8, !tbaa !3
  %155 = icmp slt i64 %153, %154
  br i1 %155, label %156, label %220

156:                                              ; preds = %152
  %157 = load i64, ptr %10, align 8, !tbaa !3
  %158 = load ptr, ptr %13, align 8, !tbaa !12
  %159 = getelementptr inbounds nuw %struct._generic_SUNMatrix, ptr %158, i32 0, i32 0
  %160 = load ptr, ptr %159, align 8, !tbaa !29
  %161 = getelementptr inbounds nuw %struct._SUNMatrixContent_Sparse, ptr %160, i32 0, i32 7
  %162 = load ptr, ptr %161, align 8, !tbaa !45
  %163 = load i64, ptr %8, align 8, !tbaa !3
  %164 = getelementptr inbounds i64, ptr %162, i64 %163
  store i64 %157, ptr %164, align 8, !tbaa !3
  store i64 0, ptr %9, align 8, !tbaa !3
  br label %165

165:                                              ; preds = %213, %156
  %166 = load i64, ptr %9, align 8, !tbaa !3
  %167 = load i64, ptr %12, align 8, !tbaa !3
  %168 = icmp slt i64 %166, %167
  br i1 %168, label %169, label %216

169:                                              ; preds = %165
  %170 = load ptr, ptr %4, align 8, !tbaa !12
  %171 = getelementptr inbounds nuw %struct._generic_SUNMatrix, ptr %170, i32 0, i32 0
  %172 = load ptr, ptr %171, align 8, !tbaa !29
  %173 = getelementptr inbounds nuw %struct._SUNMatrixContent_Dense, ptr %172, i32 0, i32 4
  %174 = load ptr, ptr %173, align 8, !tbaa !57
  %175 = load i64, ptr %9, align 8, !tbaa !3
  %176 = getelementptr inbounds ptr, ptr %174, i64 %175
  %177 = load ptr, ptr %176, align 8, !tbaa !50
  %178 = load i64, ptr %8, align 8, !tbaa !3
  %179 = getelementptr inbounds double, ptr %177, i64 %178
  %180 = load double, ptr %179, align 8, !tbaa !47
  %181 = call double @llvm.fabs.f64(double %180)
  %182 = load double, ptr %5, align 8, !tbaa !47
  %183 = fcmp ogt double %181, %182
  br i1 %183, label %184, label %212

184:                                              ; preds = %169
  %185 = load i64, ptr %9, align 8, !tbaa !3
  %186 = load ptr, ptr %13, align 8, !tbaa !12
  %187 = getelementptr inbounds nuw %struct._generic_SUNMatrix, ptr %186, i32 0, i32 0
  %188 = load ptr, ptr %187, align 8, !tbaa !29
  %189 = getelementptr inbounds nuw %struct._SUNMatrixContent_Sparse, ptr %188, i32 0, i32 6
  %190 = load ptr, ptr %189, align 8, !tbaa !44
  %191 = load i64, ptr %10, align 8, !tbaa !3
  %192 = getelementptr inbounds i64, ptr %190, i64 %191
  store i64 %185, ptr %192, align 8, !tbaa !3
  %193 = load ptr, ptr %4, align 8, !tbaa !12
  %194 = getelementptr inbounds nuw %struct._generic_SUNMatrix, ptr %193, i32 0, i32 0
  %195 = load ptr, ptr %194, align 8, !tbaa !29
  %196 = getelementptr inbounds nuw %struct._SUNMatrixContent_Dense, ptr %195, i32 0, i32 4
  %197 = load ptr, ptr %196, align 8, !tbaa !57
  %198 = load i64, ptr %9, align 8, !tbaa !3
  %199 = getelementptr inbounds ptr, ptr %197, i64 %198
  %200 = load ptr, ptr %199, align 8, !tbaa !50
  %201 = load i64, ptr %8, align 8, !tbaa !3
  %202 = getelementptr inbounds double, ptr %200, i64 %201
  %203 = load double, ptr %202, align 8, !tbaa !47
  %204 = load ptr, ptr %13, align 8, !tbaa !12
  %205 = getelementptr inbounds nuw %struct._generic_SUNMatrix, ptr %204, i32 0, i32 0
  %206 = load ptr, ptr %205, align 8, !tbaa !29
  %207 = getelementptr inbounds nuw %struct._SUNMatrixContent_Sparse, ptr %206, i32 0, i32 4
  %208 = load ptr, ptr %207, align 8, !tbaa !43
  %209 = load i64, ptr %10, align 8, !tbaa !3
  %210 = add nsw i64 %209, 1
  store i64 %210, ptr %10, align 8, !tbaa !3
  %211 = getelementptr inbounds double, ptr %208, i64 %209
  store double %203, ptr %211, align 8, !tbaa !47
  br label %212

212:                                              ; preds = %184, %169
  br label %213

213:                                              ; preds = %212
  %214 = load i64, ptr %9, align 8, !tbaa !3
  %215 = add nsw i64 %214, 1
  store i64 %215, ptr %9, align 8, !tbaa !3
  br label %165

216:                                              ; preds = %165
  br label %217

217:                                              ; preds = %216
  %218 = load i64, ptr %8, align 8, !tbaa !3
  %219 = add nsw i64 %218, 1
  store i64 %219, ptr %8, align 8, !tbaa !3
  br label %152

220:                                              ; preds = %152
  %221 = load i64, ptr %10, align 8, !tbaa !3
  %222 = load ptr, ptr %13, align 8, !tbaa !12
  %223 = getelementptr inbounds nuw %struct._generic_SUNMatrix, ptr %222, i32 0, i32 0
  %224 = load ptr, ptr %223, align 8, !tbaa !29
  %225 = getelementptr inbounds nuw %struct._SUNMatrixContent_Sparse, ptr %224, i32 0, i32 7
  %226 = load ptr, ptr %225, align 8, !tbaa !45
  %227 = load i64, ptr %11, align 8, !tbaa !3
  %228 = getelementptr inbounds i64, ptr %226, i64 %227
  store i64 %221, ptr %228, align 8, !tbaa !3
  br label %229

229:                                              ; preds = %220, %142
  %230 = load ptr, ptr %13, align 8, !tbaa !12
  call void @llvm.lifetime.end.p0(i64 8, ptr %13) #8
  call void @llvm.lifetime.end.p0(i64 8, ptr %12) #8
  call void @llvm.lifetime.end.p0(i64 8, ptr %11) #8
  call void @llvm.lifetime.end.p0(i64 8, ptr %10) #8
  call void @llvm.lifetime.end.p0(i64 8, ptr %9) #8
  call void @llvm.lifetime.end.p0(i64 8, ptr %8) #8
  call void @llvm.lifetime.end.p0(i64 8, ptr %7) #8
  ret ptr %230
}