; Function Attrs: nounwind uwtable
define noundef ptr @SUNSparseFromDenseMatrix(ptr noundef readonly captures(none) %0, double noundef %1, i32 noundef %2) local_unnamed_addr #0 {
  %4 = getelementptr inbounds nuw i8, ptr %0, i64 16
  %5 = load ptr, ptr %0, align 8, !tbaa !20
  %6 = load i64, ptr %5, align 8, !tbaa !44
  %7 = getelementptr inbounds nuw i8, ptr %5, i64 8
  %8 = load i64, ptr %7, align 8, !tbaa !47
  %9 = icmp sgt i64 %8, 0
  %10 = icmp sgt i64 %6, 0
  %or.cond = select i1 %9, i1 %10, i1 false
  br i1 %or.cond, label %.preheader77.lr.ph.split.us, label %._crit_edge82

.preheader77.lr.ph.split.us:                      ; preds = %3
  %11 = getelementptr inbounds nuw i8, ptr %5, i64 32
  %12 = load ptr, ptr %11, align 8, !tbaa !48
  br label %.preheader77.us

.preheader77.us:                                  ; preds = %._crit_edge.us, %.preheader77.lr.ph.split.us
  %.06881.us = phi i64 [ 0, %.preheader77.lr.ph.split.us ], [ %23, %._crit_edge.us ]
  %.07180.us = phi i64 [ 0, %.preheader77.lr.ph.split.us ], [ %21, %._crit_edge.us ]
  %13 = getelementptr inbounds nuw ptr, ptr %12, i64 %.06881.us
  %14 = load ptr, ptr %13, align 8, !tbaa !49
  br label %15

15:                                               ; preds = %.preheader77.us, %15
  %.079.us = phi i64 [ 0, %.preheader77.us ], [ %22, %15 ]
  %.17278.us = phi i64 [ %.07180.us, %.preheader77.us ], [ %21, %15 ]
  %16 = getelementptr inbounds nuw double, ptr %14, i64 %.079.us
  %17 = load double, ptr %16, align 8, !tbaa !41
  %18 = tail call double @llvm.fabs.f64(double %17)
  %19 = fcmp ogt double %18, %1
  %20 = zext i1 %19 to i64
  %21 = add nsw i64 %.17278.us, %20
  %22 = add nuw nsw i64 %.079.us, 1
  %exitcond.not = icmp eq i64 %22, %6
  br i1 %exitcond.not, label %._crit_edge.us, label %15

._crit_edge.us:                                   ; preds = %15
  %23 = add nuw nsw i64 %.06881.us, 1
  %exitcond108.not = icmp eq i64 %23, %8
  br i1 %exitcond108.not, label %._crit_edge82, label %.preheader77.us

._crit_edge82:                                    ; preds = %._crit_edge.us, %3
  %.071.lcssa = phi i64 [ 0, %3 ], [ %21, %._crit_edge.us ]
  %24 = load ptr, ptr %4, align 8, !tbaa !36
  %25 = tail call ptr @SUNSparseMatrix(i64 noundef %6, i64 noundef %8, i64 noundef %.071.lcssa, i32 noundef %2, ptr noundef %24)
  %26 = icmp eq i32 %2, 0
  br i1 %26, label %.preheader, label %.preheader76

.preheader76:                                     ; preds = %._crit_edge82
  %27 = icmp sgt i64 %6, 0
  %.pre = load ptr, ptr %25, align 8, !tbaa !20
  %28 = getelementptr inbounds nuw i8, ptr %.pre, i64 56
  %29 = load ptr, ptr %28, align 8, !tbaa !35
  br i1 %27, label %.lr.ph88, label %._crit_edge89

.lr.ph88:                                         ; preds = %.preheader76
  %30 = getelementptr inbounds nuw i8, ptr %.pre, i64 48
  %31 = getelementptr inbounds nuw i8, ptr %.pre, i64 32
  br i1 %9, label %.lr.ph88.split.us, label %.lr.ph88.split.preheader

.lr.ph88.split.preheader:                         ; preds = %.lr.ph88
  %32 = shl nuw i64 %6, 3
  tail call void @llvm.memset.p0.i64(ptr align 8 %29, i8 0, i64 %32, i1 false), !tbaa !43
  br label %._crit_edge89

.lr.ph88.split.us:                                ; preds = %.lr.ph88
  %33 = load ptr, ptr %0, align 8, !tbaa !20
  %34 = getelementptr inbounds nuw i8, ptr %33, i64 32
  %35 = load ptr, ptr %34, align 8, !tbaa !48
  br label %.lr.ph.us

.lr.ph.us:                                        ; preds = %._crit_edge.us91, %.lr.ph88.split.us
  %.287.us = phi i64 [ 0, %.lr.ph88.split.us ], [ %52, %._crit_edge.us91 ]
  %.586.us = phi i64 [ 0, %.lr.ph88.split.us ], [ %.7.us, %._crit_edge.us91 ]
  %36 = getelementptr inbounds nuw i64, ptr %29, i64 %.287.us
  store i64 %.586.us, ptr %36, align 8, !tbaa !43
  br label %37

37:                                               ; preds = %.lr.ph.us, %50
  %.27085.us = phi i64 [ 0, %.lr.ph.us ], [ %51, %50 ]
  %.684.us = phi i64 [ %.586.us, %.lr.ph.us ], [ %.7.us, %50 ]
  %38 = getelementptr inbounds nuw ptr, ptr %35, i64 %.27085.us
  %39 = load ptr, ptr %38, align 8, !tbaa !49
  %40 = getelementptr inbounds nuw double, ptr %39, i64 %.287.us
  %41 = load double, ptr %40, align 8, !tbaa !41
  %42 = tail call double @llvm.fabs.f64(double %41)
  %43 = fcmp ogt double %42, %1
  br i1 %43, label %44, label %50

44:                                               ; preds = %37
  %45 = load ptr, ptr %30, align 8, !tbaa !34
  %46 = getelementptr inbounds i64, ptr %45, i64 %.684.us
  store i64 %.27085.us, ptr %46, align 8, !tbaa !43
  %47 = load ptr, ptr %31, align 8, !tbaa !33
  %48 = add nsw i64 %.684.us, 1
  %49 = getelementptr inbounds double, ptr %47, i64 %.684.us
  store double %41, ptr %49, align 8, !tbaa !41
  br label %50

50:                                               ; preds = %44, %37
  %.7.us = phi i64 [ %48, %44 ], [ %.684.us, %37 ]
  %51 = add nuw nsw i64 %.27085.us, 1
  %exitcond109.not = icmp eq i64 %51, %8
  br i1 %exitcond109.not, label %._crit_edge.us91, label %37

._crit_edge.us91:                                 ; preds = %50
  %52 = add nuw nsw i64 %.287.us, 1
  %exitcond110.not = icmp eq i64 %52, %6
  br i1 %exitcond110.not, label %._crit_edge89, label %.lr.ph.us

.preheader:                                       ; preds = %._crit_edge82
  %.pre114 = load ptr, ptr %25, align 8, !tbaa !20
  %53 = getelementptr inbounds nuw i8, ptr %.pre114, i64 56
  %54 = load ptr, ptr %53, align 8, !tbaa !35
  br i1 %9, label %.lr.ph98, label %._crit_edge99

.lr.ph98:                                         ; preds = %.preheader
  %55 = icmp sgt i64 %6, 0
  %56 = getelementptr inbounds nuw i8, ptr %.pre114, i64 48
  %57 = getelementptr inbounds nuw i8, ptr %.pre114, i64 32
  br i1 %55, label %.lr.ph98.split.us, label %.lr.ph98.split.preheader

.lr.ph98.split.preheader:                         ; preds = %.lr.ph98
  %58 = shl nuw i64 %8, 3
  tail call void @llvm.memset.p0.i64(ptr align 8 %54, i8 0, i64 %58, i1 false), !tbaa !43
  br label %._crit_edge99

.lr.ph98.split.us:                                ; preds = %.lr.ph98
  %59 = load ptr, ptr %0, align 8, !tbaa !20
  %60 = getelementptr inbounds nuw i8, ptr %59, i64 32
  %61 = load ptr, ptr %60, align 8, !tbaa !48
  br label %.lr.ph.us101

.lr.ph.us101:                                     ; preds = %._crit_edge.us102, %.lr.ph98.split.us
  %.16997.us = phi i64 [ 0, %.lr.ph98.split.us ], [ %78, %._crit_edge.us102 ]
  %.27396.us = phi i64 [ 0, %.lr.ph98.split.us ], [ %.4.us, %._crit_edge.us102 ]
  %62 = getelementptr inbounds nuw i64, ptr %54, i64 %.16997.us
  store i64 %.27396.us, ptr %62, align 8, !tbaa !43
  %63 = getelementptr inbounds nuw ptr, ptr %61, i64 %.16997.us
  %64 = load ptr, ptr %63, align 8, !tbaa !49
  br label %65

65:                                               ; preds = %.lr.ph.us101, %76
  %.195.us = phi i64 [ 0, %.lr.ph.us101 ], [ %77, %76 ]
  %.394.us = phi i64 [ %.27396.us, %.lr.ph.us101 ], [ %.4.us, %76 ]
  %66 = getelementptr inbounds nuw double, ptr %64, i64 %.195.us
  %67 = load double, ptr %66, align 8, !tbaa !41
  %68 = tail call double @llvm.fabs.f64(double %67)
  %69 = fcmp ogt double %68, %1
  br i1 %69, label %70, label %76

70:                                               ; preds = %65
  %71 = load ptr, ptr %56, align 8, !tbaa !34
  %72 = getelementptr inbounds i64, ptr %71, i64 %.394.us
  store i64 %.195.us, ptr %72, align 8, !tbaa !43
  %73 = load ptr, ptr %57, align 8, !tbaa !33
  %74 = add nsw i64 %.394.us, 1
  %75 = getelementptr inbounds double, ptr %73, i64 %.394.us
  store double %67, ptr %75, align 8, !tbaa !41
  br label %76

76:                                               ; preds = %70, %65
  %.4.us = phi i64 [ %74, %70 ], [ %.394.us, %65 ]
  %77 = add nuw nsw i64 %.195.us, 1
  %exitcond111.not = icmp eq i64 %77, %6
  br i1 %exitcond111.not, label %._crit_edge.us102, label %65

._crit_edge.us102:                                ; preds = %76
  %78 = add nuw nsw i64 %.16997.us, 1
  %exitcond112.not = icmp eq i64 %78, %8
  br i1 %exitcond112.not, label %._crit_edge99, label %.lr.ph.us101

._crit_edge99:                                    ; preds = %._crit_edge.us102, %.preheader, %.lr.ph98.split.preheader
  %.273.lcssa = phi i64 [ 0, %.lr.ph98.split.preheader ], [ 0, %.preheader ], [ %.4.us, %._crit_edge.us102 ]
  %79 = getelementptr inbounds i64, ptr %54, i64 %8
  store i64 %.273.lcssa, ptr %79, align 8, !tbaa !43
  br label %81

._crit_edge89:                                    ; preds = %._crit_edge.us91, %.preheader76, %.lr.ph88.split.preheader
  %.5.lcssa = phi i64 [ 0, %.lr.ph88.split.preheader ], [ 0, %.preheader76 ], [ %.7.us, %._crit_edge.us91 ]
  %80 = getelementptr inbounds i64, ptr %29, i64 %6
  store i64 %.5.lcssa, ptr %80, align 8, !tbaa !43
  br label %81

81:                                               ; preds = %._crit_edge89, %._crit_edge99
  ret ptr %25
}